target datalayout = "e-m:e-p270:32:32-p271:32:32-p272:64:64-i64:64-i128:128-f80:128-n8:16:32:64-S128"
target triple = "x86_64-pc-linux-gnu"

%struct._zval_struct = type { %union._zend_value, %union.anon, %union.anon.2 }
%union._zend_value = type { i64 }
%union.anon = type { i32 }
%union.anon.2 = type { i32 }
%struct._zend_op_array = type { i8, [3 x i8], i32, ptr, ptr, ptr, i32, i32, ptr, ptr, ptr, ptr, i32, i32, i32, i32, ptr, ptr, ptr, ptr, ptr, i32, i32, ptr, ptr, ptr, i32, i32, i32, i32, ptr, ptr, [6 x ptr] }
%struct._zend_op = type { ptr, %union._znode_op, %union._znode_op, %union._znode_op, i32, i32, i8, i8, i8, i8 }
%union._znode_op = type { i32 }
%struct._zend_jit_globals = type { i8, i8, i8, i8, i32, ptr, i64, i64, i64, double, i64, i64, i64, i64, i64, i64, i64, i64, i64, i64, i64, i64, i64, i64, ptr, i8, ptr, ptr, [64 x ptr], [64 x i8], [64 x i8], i32, ptr }
%struct._zend_execute_data = type { ptr, ptr, ptr, ptr, %struct._zval_struct, ptr, ptr, ptr, ptr }
%struct._zend_func_info = type { i32, i32, %struct._zend_ssa, ptr, ptr, ptr, %struct._zend_ssa_var_info }
%struct._zend_ssa = type { %struct._zend_cfg, i32, i32, ptr, ptr, ptr, ptr }
%struct._zend_cfg = type { i32, i32, ptr, ptr, ptr, i32 }
%struct._zend_ssa_var_info = type { i32, i8, %struct._zend_ssa_range, ptr }
%struct._zend_ssa_range = type { i64, i64, i8, i8 }
%struct._zend_jit_op_array_trace_extension = type { %struct._zend_func_info, ptr, i64, [1 x %union._zend_op_trace_info] }
%union._zend_op_trace_info = type { %struct._zend_op }
%struct._zend_jit_trace_rec = type { %union.anon.9, %union.anon.14 }
%union.anon.9 = type { i32 }
%union.anon.14 = type { ptr }
%struct.anon.7 = type { i8, [3 x i8], i32, ptr, ptr, ptr, i32, i32, ptr, ptr, ptr, ptr, i32 }

@zend_func_info_rid = external global i32, align 4
@jit_globals = external global %struct._zend_jit_globals, align 8

; Function Attrs: nounwind uwtable
define internal i32 @zend_jit_trace_record_fake_init_call_ex(ptr noundef %0, ptr noundef %1, i32 noundef %2, i32 noundef %3, i32 noundef %4) #0 {
  %6 = alloca i32, align 4
  %7 = alloca ptr, align 8
  %8 = alloca ptr, align 8
  %9 = alloca i32, align 4
  %10 = alloca i32, align 4
  %11 = alloca i32, align 4
  %12 = alloca i32, align 4
  %13 = alloca ptr, align 8
  %14 = alloca ptr, align 8
  store ptr %0, ptr %7, align 8
  store ptr %1, ptr %8, align 8
  store i32 %2, ptr %9, align 4
  store i32 %3, ptr %10, align 4
  store i32 %4, ptr %11, align 4
  store i32 8, ptr %12, align 4
  br label %15

15:                                               ; preds = %5
  %16 = load ptr, ptr %7, align 8
  %17 = getelementptr inbounds %struct._zend_execute_data, ptr %16, i32 0, i32 5
  %18 = load ptr, ptr %17, align 8
  %19 = icmp ne ptr %18, null
  br i1 %19, label %20, label %35

20:                                               ; preds = %15
  %21 = load ptr, ptr %7, align 8
  %22 = getelementptr inbounds %struct._zend_execute_data, ptr %21, i32 0, i32 5
  %23 = load ptr, ptr %22, align 8
  %24 = load ptr, ptr %8, align 8
  %25 = load i32, ptr %9, align 4
  %26 = load i32, ptr %10, align 4
  %27 = load i32, ptr %11, align 4
  %28 = add i32 %27, 1
  %29 = call i32 @zend_jit_trace_record_fake_init_call_ex(ptr noundef %23, ptr noundef %24, i32 noundef %25, i32 noundef %26, i32 noundef %28)
  store i32 %29, ptr %9, align 4
  %30 = load i32, ptr %9, align 4
  %31 = icmp slt i32 %30, 0
  br i1 %31, label %32, label %34

32:                                               ; preds = %20
  %33 = load i32, ptr %9, align 4
  store i32 %33, ptr %6, align 4
  br label %154

34:                                               ; preds = %20
  br label %35

35:                                               ; preds = %34, %15
  %36 = load ptr, ptr %7, align 8
  %37 = getelementptr inbounds %struct._zend_execute_data, ptr %36, i32 0, i32 3
  %38 = load ptr, ptr %37, align 8
  store ptr %38, ptr %13, align 8
  %39 = load ptr, ptr %13, align 8
  %40 = getelementptr inbounds %struct.anon.7, ptr %39, i32 0, i32 2
  %41 = load i32, ptr %40, align 4
  %42 = and i32 %41, 786432
  %43 = icmp ne i32 %42, 0
  br i1 %43, label %44, label %45

44:                                               ; preds = %35
  store i32 -1, ptr %6, align 4
  br label %154

45:                                               ; preds = %35
  %46 = load ptr, ptr %13, align 8
  %47 = load i8, ptr %46, align 8
  %48 = zext i8 %47 to i32
  %49 = icmp eq i32 %48, 1
  br i1 %49, label %50, label %57

50:                                               ; preds = %45
  %51 = load ptr, ptr %13, align 8
  %52 = getelementptr inbounds %struct._zend_op_array, ptr %51, i32 0, i32 2
  %53 = load i32, ptr %52, align 4
  %54 = and i32 %53, 12582912
  %55 = icmp ne i32 %54, 0
  br i1 %55, label %56, label %57

56:                                               ; preds = %50
  store i32 -1, ptr %6, align 4
  br label %154

57:                                               ; preds = %50, %45
  %58 = load ptr, ptr %13, align 8
  %59 = load i8, ptr %58, align 8
  %60 = zext i8 %59 to i32
  %61 = icmp eq i32 %60, 2
  br i1 %61, label %62, label %102

62:                                               ; preds = %57
  %63 = load ptr, ptr %13, align 8
  %64 = getelementptr inbounds %struct._zend_op_array, ptr %63, i32 0, i32 2
  %65 = load i32, ptr %64, align 4
  %66 = and i32 %65, 4194304
  %67 = icmp ne i32 %66, 0
  br i1 %67, label %68, label %102

68:                                               ; preds = %62
  %69 = load ptr, ptr %13, align 8
  %70 = getelementptr inbounds %struct._zend_op_array, ptr %69, i32 0, i32 32
  %71 = load i32, ptr @zend_func_info_rid, align 4
  %72 = sext i32 %71 to i64
  %73 = getelementptr inbounds [6 x ptr], ptr %70, i64 0, i64 %72
  %74 = load ptr, ptr %73, align 8
  store ptr %74, ptr %14, align 8
  %75 = load ptr, ptr %14, align 8
  %76 = icmp ne ptr %75, null
  br i1 %76, label %77, label %90

77:                                               ; preds = %68
  %78 = load ptr, ptr %14, align 8
  %79 = getelementptr inbounds %struct._zend_jit_op_array_trace_extension, ptr %78, i32 0, i32 0
  %80 = getelementptr inbounds %struct._zend_func_info, ptr %79, i32 0, i32 1
  %81 = load i32, ptr %80, align 4
  %82 = and i32 %81, 65536
  %83 = icmp ne i32 %82, 0
  br i1 %83, label %84, label %90

84:                                               ; preds = %77
  %85 = load ptr, ptr %13, align 8
  %86 = getelementptr inbounds %struct._zend_op_array, ptr %85, i32 0, i32 2
  %87 = load i32, ptr %86, align 4
  %88 = and i32 %87, 8388608
  %89 = icmp ne i32 %88, 0
  br label %90

90:                                               ; preds = %84, %77, %68
  %91 = phi i1 [ true, %77 ], [ true, %68 ], [ %89, %84 ]
  %92 = xor i1 %91, true
  %93 = xor i1 %92, true
  %94 = zext i1 %93 to i32
  %95 = sext i32 %94 to i64
  %96 = icmp ne i64 %95, 0
  br i1 %96, label %97, label %98

97:                                               ; preds = %90
  store i32 -1, ptr %6, align 4
  br label %154

98:                                               ; preds = %90
  %99 = load ptr, ptr %14, align 8
  %100 = getelementptr inbounds %struct._zend_jit_op_array_trace_extension, ptr %99, i32 0, i32 1
  %101 = load ptr, ptr %100, align 8
  store ptr %101, ptr %13, align 8
  br label %102

102:                                              ; preds = %98, %62, %57
  %103 = load i32, ptr %10, align 4
  %104 = icmp eq i32 %103, 16
  br i1 %104, label %105, label %127

105:                                              ; preds = %102
  %106 = load ptr, ptr %7, align 8
  %107 = getelementptr inbounds %struct._zend_execute_data, ptr %106, i32 0, i32 4
  %108 = getelementptr inbounds %struct._zval_struct, ptr %107, i32 0, i32 1
  %109 = load i32, ptr %108, align 8
  %110 = and i32 %109, 33554432
  %111 = icmp ne i32 %110, 0
  br i1 %111, label %117, label %112

112:                                              ; preds = %105
  %113 = load ptr, ptr %13, align 8
  %114 = getelementptr inbounds %struct.anon.7, ptr %113, i32 0, i32 4
  %115 = load ptr, ptr %114, align 8
  %116 = icmp ne ptr %115, null
  br i1 %116, label %117, label %127

117:                                              ; preds = %112, %105
  store ptr null, ptr %13, align 8
  br label %118

118:                                              ; preds = %117
  br label %119

119:                                              ; preds = %118
  %120 = load ptr, ptr %7, align 8
  %121 = getelementptr inbounds %struct._zend_execute_data, ptr %120, i32 0, i32 4
  %122 = getelementptr inbounds %struct._zval_struct, ptr %121, i32 0, i32 1
  %123 = load i32, ptr %122, align 8
  %124 = or i32 %123, 536870912
  store i32 %124, ptr %122, align 8
  br label %125

125:                                              ; preds = %119
  br label %126

126:                                              ; preds = %125
  br label %127

127:                                              ; preds = %126, %112, %102
  %128 = load i32, ptr %11, align 4
  %129 = shl i32 %128, 16
  %130 = or i32 %129, 256
  %131 = or i32 4, %130
  %132 = load ptr, ptr %8, align 8
  %133 = load i32, ptr %9, align 4
  %134 = sext i32 %133 to i64
  %135 = getelementptr inbounds %struct._zend_jit_trace_rec, ptr %132, i64 %134
  %136 = getelementptr inbounds %struct._zend_jit_trace_rec, ptr %135, i32 0, i32 0
  store i32 %131, ptr %136, align 8
  %137 = load ptr, ptr %13, align 8
  %138 = load ptr, ptr %8, align 8
  %139 = load i32, ptr %9, align 4
  %140 = sext i32 %139 to i64
  %141 = getelementptr inbounds %struct._zend_jit_trace_rec, ptr %138, i64 %140
  %142 = getelementptr inbounds %struct._zend_jit_trace_rec, ptr %141, i32 0, i32 1
  store ptr %137, ptr %142, align 8
  %143 = load i32, ptr %9, align 4
  %144 = add nsw i32 %143, 1
  store i32 %144, ptr %9, align 4
  %145 = load i32, ptr %9, align 4
  %146 = sext i32 %145 to i64
  %147 = load i64, ptr getelementptr inbounds (%struct._zend_jit_globals, ptr @jit_globals, i32 0, i32 23), align 8
  %148 = sub nsw i64 %147, 2
  %149 = icmp sge i64 %146, %148
  br i1 %149, label %150, label %151

150:                                              ; preds = %127
  store i32 11, ptr %12, align 4
  br label %152

151:                                              ; preds = %127
  br label %152

152:                                              ; preds = %151, %150
  %153 = load i32, ptr %9, align 4
  store i32 %153, ptr %6, align 4
  br label %154

154:                                              ; preds = %152, %97, %56, %44, %32
  %155 = load i32, ptr %6, align 4
  ret i32 %155
}