; Function Attrs: nofree nosync nounwind memory(readwrite, inaccessiblemem: none) uwtable
define internal fastcc i32 @zend_jit_trace_record_fake_init_call_ex(ptr nocapture noundef %0, ptr nocapture noundef writeonly %1, i32 noundef %2, i32 noundef %3, i32 noundef %4) unnamed_addr #4 {
  %6 = getelementptr inbounds i8, ptr %0, i64 48
  %7 = load ptr, ptr %6, align 8
  %.not = icmp eq ptr %7, null
  br i1 %.not, label %12, label %8

8:                                                ; preds = %5
  %9 = add i32 %4, 1
  %10 = tail call fastcc i32 @zend_jit_trace_record_fake_init_call_ex(ptr noundef nonnull %7, ptr noundef %1, i32 noundef %2, i32 noundef %3, i32 noundef %9)
  %11 = icmp slt i32 %10, 0
  br i1 %11, label %.critedge, label %12

12:                                               ; preds = %8, %5
  %.033 = phi i32 [ %10, %8 ], [ %2, %5 ]
  %13 = getelementptr inbounds i8, ptr %0, i64 24
  %14 = load ptr, ptr %13, align 8
  %15 = getelementptr inbounds i8, ptr %14, i64 4
  %16 = load i32, ptr %15, align 4
  %17 = and i32 %16, 786432
  %.not38 = icmp eq i32 %17, 0
  br i1 %.not38, label %18, label %.critedge

18:                                               ; preds = %12
  %19 = load i8, ptr %14, align 8
  %20 = icmp ne i8 %19, 1
  %21 = and i32 %16, 12582912
  %.not39 = icmp eq i32 %21, 0
  %or.cond = or i1 %.not39, %20
  br i1 %or.cond, label %22, label %.critedge

22:                                               ; preds = %18
  %23 = icmp ne i8 %19, 2
  %24 = and i32 %16, 4194304
  %.not40 = icmp eq i32 %24, 0
  %or.cond48 = or i1 %.not40, %23
  br i1 %or.cond48, label %40, label %25

25:                                               ; preds = %22
  %26 = getelementptr inbounds i8, ptr %14, i64 192
  %27 = load i32, ptr @zend_func_info_rid, align 4
  %28 = sext i32 %27 to i64
  %29 = getelementptr inbounds [6 x ptr], ptr %26, i64 0, i64 %28
  %30 = load ptr, ptr %29, align 8
  %.not41 = icmp eq ptr %30, null
  br i1 %.not41, label %.critedge, label %31

31:                                               ; preds = %25
  %32 = getelementptr inbounds i8, ptr %30, i64 4
  %33 = load i32, ptr %32, align 4
  %34 = and i32 %33, 65536
  %.not42 = icmp eq i32 %34, 0
  %35 = and i32 %16, 8388608
  %36 = icmp ne i32 %35, 0
  %or.cond47 = or i1 %36, %.not42
  br i1 %or.cond47, label %.critedge, label %37

37:                                               ; preds = %31
  %38 = getelementptr inbounds i8, ptr %30, i64 152
  %39 = load ptr, ptr %38, align 8
  br label %40

40:                                               ; preds = %37, %22
  %.032 = phi ptr [ %39, %37 ], [ %14, %22 ]
  %41 = icmp eq i32 %3, 16
  br i1 %41, label %42, label %51

42:                                               ; preds = %40
  %43 = getelementptr inbounds i8, ptr %0, i64 40
  %44 = load i32, ptr %43, align 8
  %45 = and i32 %44, 33554432
  %.not43 = icmp eq i32 %45, 0
  br i1 %.not43, label %46, label %49

46:                                               ; preds = %42
  %47 = getelementptr inbounds i8, ptr %.032, i64 16
  %48 = load ptr, ptr %47, align 8
  %.not44 = icmp eq ptr %48, null
  br i1 %.not44, label %51, label %49

49:                                               ; preds = %46, %42
  %50 = or i32 %44, 536870912
  store i32 %50, ptr %43, align 8
  br label %51

51:                                               ; preds = %49, %46, %40
  %.1 = phi ptr [ null, %49 ], [ %.032, %46 ], [ %.032, %40 ]
  %52 = shl i32 %4, 16
  %53 = or disjoint i32 %52, 260
  %54 = sext i32 %.033 to i64
  %55 = getelementptr inbounds %struct._zend_jit_trace_rec, ptr %1, i64 %54
  store i32 %53, ptr %55, align 8
  %56 = getelementptr inbounds i8, ptr %55, i64 8
  store ptr %.1, ptr %56, align 8
  %57 = add nsw i32 %.033, 1
  br label %.critedge

.critedge:                                        ; preds = %31, %25, %18, %12, %8, %51
  %.0 = phi i32 [ %57, %51 ], [ %10, %8 ], [ -1, %12 ], [ -1, %18 ], [ -1, %25 ], [ -1, %31 ]
  ret i32 %.0
}